target datalayout = "e-m:e-p270:32:32-p271:32:32-p272:64:64-i64:64-i128:128-f80:128-n8:16:32:64-S128"
target triple = "x86_64-pc-linux-gnu"

%struct.malloc_mutex_s = type { %union.anon }
%union.anon = type { %struct.anon.1 }
%struct.anon.1 = type { %struct.mutex_prof_data_t, %struct.atomic_b_t, %union.pthread_mutex_t }
%struct.mutex_prof_data_t = type { %struct.nstime_t, %struct.nstime_t, i64, i64, i32, %struct.atomic_u32_t, i64, ptr, i64 }
%struct.nstime_t = type { i64 }
%struct.atomic_u32_t = type { i32 }
%struct.atomic_b_t = type { i8 }
%union.pthread_mutex_t = type { %struct.__pthread_mutex_s }
%struct.__pthread_mutex_s = type { i32, i32, i32, i32, i32, i16, i16, %struct.__pthread_internal_list }
%struct.__pthread_internal_list = type { ptr, ptr }
%struct.atomic_zd_t = type { i64 }
%struct.hpa_shard_opts_s = type { i64, i64, i32, i8, i64, i8, i64, i64 }
%struct.sec_opts_s = type { i64, i64, i64, i64, i64 }
%struct.arena_s = type { [2 x %struct.atomic_u_t], %struct.atomic_u_t, ptr, %struct.arena_stats_s, %struct.anon, %struct.anon.0, %struct.malloc_mutex_s, %struct.atomic_u_t, %struct.edata_list_active_t, %struct.malloc_mutex_s, %struct.pa_shard_s, i32, ptr, %struct.nstime_t, [32 x i8], [32 x i8], [0 x %struct.bin_with_batch_s] }
%struct.arena_stats_s = type { i64, i64, i64, i64, i64, i64, %struct.atomic_zu_t, i64, i64, i64, i64, i64, i64, %struct.pa_shard_stats_s, i64, i64, [12 x %struct.mutex_prof_data_t], [196 x %struct.arena_stats_large_s], %struct.nstime_t }
%struct.atomic_zu_t = type { i64 }
%struct.pa_shard_stats_s = type { i64, %struct.pac_stats_s }
%struct.pac_stats_s = type { %struct.pac_decay_stats_s, %struct.pac_decay_stats_s, i64, %struct.atomic_zu_t, %struct.atomic_zu_t }
%struct.pac_decay_stats_s = type { %struct.locked_u64_s, %struct.locked_u64_s, %struct.locked_u64_s }
%struct.locked_u64_s = type { %struct.atomic_u64_t }
%struct.atomic_u64_t = type { i64 }
%struct.arena_stats_large_s = type { %struct.locked_u64_s, %struct.locked_u64_s, %struct.locked_u64_s, %struct.locked_u64_s, %struct.locked_u64_s, i64 }
%struct.anon = type { ptr }
%struct.anon.0 = type { ptr }
%struct.atomic_u_t = type { i32 }
%struct.edata_list_active_t = type { %struct.anon.3 }
%struct.anon.3 = type { ptr }
%struct.pa_shard_s = type { ptr, %struct.atomic_zu_t, %struct.atomic_b_t, i8, %struct.pac_s, %struct.sec_s, %struct.hpa_shard_s, %struct.edata_cache_s, i32, ptr, ptr, ptr, ptr }
%struct.pac_s = type { %struct.pai_s, %struct.ecache_s, %struct.ecache_s, %struct.ecache_s, ptr, ptr, ptr, %struct.exp_grow_s, %struct.malloc_mutex_s, %struct.san_bump_alloc_s, %struct.atomic_zu_t, %struct.decay_s, %struct.decay_s, ptr, ptr, %struct.atomic_zu_t }
%struct.pai_s = type { ptr, ptr, ptr, ptr, ptr, ptr, ptr }
%struct.ecache_s = type { %struct.malloc_mutex_s, %struct.eset_s, %struct.eset_s, i32, i32, i8 }
%struct.eset_s = type { [4 x i64], [200 x %struct.eset_bin_s], [200 x %struct.eset_bin_stats_s], %struct.edata_list_inactive_t, %struct.atomic_zu_t, i32 }
%struct.eset_bin_s = type { %struct.edata_heap_t, %struct.edata_cmp_summary_s }
%struct.edata_heap_t = type { %struct.ph_s }
%struct.ph_s = type { ptr, i64 }
%struct.edata_cmp_summary_s = type { i64, i64 }
%struct.eset_bin_stats_s = type { %struct.atomic_zu_t, %struct.atomic_zu_t }
%struct.edata_list_inactive_t = type { %struct.anon.4 }
%struct.anon.4 = type { ptr }
%struct.exp_grow_s = type { i32, i32 }
%struct.san_bump_alloc_s = type { %struct.malloc_mutex_s, ptr }
%struct.decay_s = type { %struct.malloc_mutex_s, i8, %struct.atomic_zd_t, %struct.nstime_t, %struct.nstime_t, i64, %struct.nstime_t, i64, i64, [200 x i64], i64 }
%struct.sec_s = type { %struct.pai_s, ptr, %struct.sec_opts_s, ptr, i32 }
%struct.hpa_shard_s = type { %struct.pai_s, ptr, %struct.malloc_mutex_s, %struct.malloc_mutex_s, ptr, %struct.edata_cache_fast_s, %struct.psset_s, i64, i32, ptr, %struct.hpa_shard_opts_s, i64, %struct.hpa_shard_nonderived_stats_s, %struct.nstime_t }
%struct.edata_cache_fast_s = type { %struct.edata_list_inactive_t, ptr, i8 }
%struct.psset_s = type { [64 x %struct.hpdata_age_heap_t], [1 x i64], %struct.psset_stats_s, %struct.hpdata_empty_list_t, [128 x %struct.hpdata_purge_list_t], [2 x i64], %struct.hpdata_hugify_list_t }
%struct.hpdata_age_heap_t = type { %struct.ph_s }
%struct.psset_stats_s = type { %struct.psset_bin_stats_s, [2 x %struct.psset_bin_stats_s], [64 x [2 x %struct.psset_bin_stats_s]], [2 x %struct.psset_bin_stats_s], [2 x %struct.psset_bin_stats_s] }
%struct.psset_bin_stats_s = type { i64, i64, i64 }
%struct.hpdata_empty_list_t = type { %struct.anon.5 }
%struct.anon.5 = type { ptr }
%struct.hpdata_purge_list_t = type { %struct.anon.6 }
%struct.anon.6 = type { ptr }
%struct.hpdata_hugify_list_t = type { %struct.anon.7 }
%struct.anon.7 = type { ptr }
%struct.hpa_shard_nonderived_stats_s = type { i64, i64, i64, i64, i64 }
%struct.edata_cache_s = type { %struct.edata_avail_t, %struct.atomic_zu_t, %struct.malloc_mutex_s, ptr }
%struct.edata_avail_t = type { %struct.ph_s }
%struct.bin_with_batch_s = type { %struct.bin_s, %struct.batcher_s, [16 x %struct.bin_remote_free_data_s] }
%struct.bin_s = type { %struct.malloc_mutex_s, %struct.bin_stats_s, ptr, %struct.edata_heap_t, %struct.edata_list_active_t }
%struct.bin_stats_s = type { i64, i64, i64, i64, i64, i64, i64, i64, i64, i64, i64, i64, i64, i64 }
%struct.batcher_s = type { %struct.atomic_zu_t, i64, i64, %struct.malloc_mutex_s }
%struct.bin_remote_free_data_s = type { ptr, ptr }

; Function Attrs: inlinehint nounwind uwtable
define internal i64 @ecache_npages_get(ptr noundef %0) #3 {
  %2 = alloca ptr, align 8
  store ptr %0, ptr %2, align 8, !tbaa !301
  %3 = load ptr, ptr %2, align 8, !tbaa !301
  %4 = getelementptr inbounds nuw %struct.ecache_s, ptr %3, i32 0, i32 1
  %5 = call i64 @je_eset_npages_get(ptr noundef %4)
  %6 = load ptr, ptr %2, align 8, !tbaa !301
  %7 = getelementptr inbounds nuw %struct.ecache_s, ptr %6, i32 0, i32 2
  %8 = call i64 @je_eset_npages_get(ptr noundef %7)
  %9 = add i64 %5, %8
  ret i64 %9
}

; Function Attrs: inlinehint nounwind uwtable
define internal zeroext i1 @pa_shard_dont_decay_muzzy(ptr noundef %0) #3 {
  %2 = alloca ptr, align 8
  store ptr %0, ptr %2, align 8, !tbaa !303
  %3 = load ptr, ptr %2, align 8, !tbaa !303
  %4 = getelementptr inbounds nuw %struct.pa_shard_s, ptr %3, i32 0, i32 4
  %5 = getelementptr inbounds nuw %struct.pac_s, ptr %4, i32 0, i32 2
  %6 = call i64 @ecache_npages_get(ptr noundef %5)
  %7 = icmp eq i64 %6, 0
  br i1 %7, label %8, label %13

8:                                                ; preds = %1
  %9 = load ptr, ptr %2, align 8, !tbaa !303
  %10 = getelementptr inbounds nuw %struct.pa_shard_s, ptr %9, i32 0, i32 4
  %11 = call i64 @je_pac_decay_ms_get(ptr noundef %10, i32 noundef 2)
  %12 = icmp sle i64 %11, 0
  br label %13

13:                                               ; preds = %8, %1
  %14 = phi i1 [ false, %1 ], [ %12, %8 ]
  ret i1 %14
}

; Function Attrs: nounwind uwtable
define internal zeroext i1 @arena_decay_muzzy(ptr noundef %0, ptr noundef %1, i1 noundef zeroext %2, i1 noundef zeroext %3) #0 {
  %5 = alloca i1, align 1
  %6 = alloca ptr, align 8
  %7 = alloca ptr, align 8
  %8 = alloca i8, align 1
  %9 = alloca i8, align 1
  store ptr %0, ptr %6, align 8, !tbaa !4
  store ptr %1, ptr %7, align 8, !tbaa !9
  %10 = zext i1 %2 to i8
  store i8 %10, ptr %8, align 1, !tbaa !23
  %11 = zext i1 %3 to i8
  store i8 %11, ptr %9, align 1, !tbaa !23
  %12 = load ptr, ptr %7, align 8, !tbaa !9
  %13 = getelementptr inbounds nuw %struct.arena_s, ptr %12, i32 0, i32 10
  %14 = call zeroext i1 @pa_shard_dont_decay_muzzy(ptr noundef %13)
  br i1 %14, label %15, label %16

15:                                               ; preds = %4
  store i1 false, ptr %5, align 1
  br label %38

16:                                               ; preds = %4
  %17 = load ptr, ptr %6, align 8, !tbaa !4
  %18 = load ptr, ptr %7, align 8, !tbaa !9
  %19 = load ptr, ptr %7, align 8, !tbaa !9
  %20 = getelementptr inbounds nuw %struct.arena_s, ptr %19, i32 0, i32 10
  %21 = getelementptr inbounds nuw %struct.pa_shard_s, ptr %20, i32 0, i32 4
  %22 = getelementptr inbounds nuw %struct.pac_s, ptr %21, i32 0, i32 12
  %23 = load ptr, ptr %7, align 8, !tbaa !9
  %24 = getelementptr inbounds nuw %struct.arena_s, ptr %23, i32 0, i32 10
  %25 = getelementptr inbounds nuw %struct.pa_shard_s, ptr %24, i32 0, i32 4
  %26 = getelementptr inbounds nuw %struct.pac_s, ptr %25, i32 0, i32 14
  %27 = load ptr, ptr %26, align 8, !tbaa !178
  %28 = getelementptr inbounds nuw %struct.pac_stats_s, ptr %27, i32 0, i32 1
  %29 = load ptr, ptr %7, align 8, !tbaa !9
  %30 = getelementptr inbounds nuw %struct.arena_s, ptr %29, i32 0, i32 10
  %31 = getelementptr inbounds nuw %struct.pa_shard_s, ptr %30, i32 0, i32 4
  %32 = getelementptr inbounds nuw %struct.pac_s, ptr %31, i32 0, i32 2
  %33 = load i8, ptr %8, align 1, !tbaa !23, !range !25, !noundef !26
  %34 = trunc i8 %33 to i1
  %35 = load i8, ptr %9, align 1, !tbaa !23, !range !25, !noundef !26
  %36 = trunc i8 %35 to i1
  %37 = call zeroext i1 @arena_decay_impl(ptr noundef %17, ptr noundef %18, ptr noundef %22, ptr noundef %28, ptr noundef %32, i1 noundef zeroext %34, i1 noundef zeroext %36)
  store i1 %37, ptr %5, align 1
  br label %38

38:                                               ; preds = %16, %15
  %39 = load i1, ptr %5, align 1
  ret i1 %39
}

; Function Attrs: nounwind uwtable
define internal zeroext i1 @arena_decay_dirty(ptr noundef %0, ptr noundef %1, i1 noundef zeroext %2, i1 noundef zeroext %3) #0 {
  %5 = alloca ptr, align 8
  %6 = alloca ptr, align 8
  %7 = alloca i8, align 1
  %8 = alloca i8, align 1
  store ptr %0, ptr %5, align 8, !tbaa !4
  store ptr %1, ptr %6, align 8, !tbaa !9
  %9 = zext i1 %2 to i8
  store i8 %9, ptr %7, align 1, !tbaa !23
  %10 = zext i1 %3 to i8
  store i8 %10, ptr %8, align 1, !tbaa !23
  %11 = load ptr, ptr %5, align 8, !tbaa !4
  %12 = load ptr, ptr %6, align 8, !tbaa !9
  %13 = load ptr, ptr %6, align 8, !tbaa !9
  %14 = getelementptr inbounds nuw %struct.arena_s, ptr %13, i32 0, i32 10
  %15 = getelementptr inbounds nuw %struct.pa_shard_s, ptr %14, i32 0, i32 4
  %16 = getelementptr inbounds nuw %struct.pac_s, ptr %15, i32 0, i32 11
  %17 = load ptr, ptr %6, align 8, !tbaa !9
  %18 = getelementptr inbounds nuw %struct.arena_s, ptr %17, i32 0, i32 10
  %19 = getelementptr inbounds nuw %struct.pa_shard_s, ptr %18, i32 0, i32 4
  %20 = getelementptr inbounds nuw %struct.pac_s, ptr %19, i32 0, i32 14
  %21 = load ptr, ptr %20, align 8, !tbaa !178
  %22 = getelementptr inbounds nuw %struct.pac_stats_s, ptr %21, i32 0, i32 0
  %23 = load ptr, ptr %6, align 8, !tbaa !9
  %24 = getelementptr inbounds nuw %struct.arena_s, ptr %23, i32 0, i32 10
  %25 = getelementptr inbounds nuw %struct.pa_shard_s, ptr %24, i32 0, i32 4
  %26 = getelementptr inbounds nuw %struct.pac_s, ptr %25, i32 0, i32 1
  %27 = load i8, ptr %7, align 1, !tbaa !23, !range !25, !noundef !26
  %28 = trunc i8 %27 to i1
  %29 = load i8, ptr %8, align 1, !tbaa !23, !range !25, !noundef !26
  %30 = trunc i8 %29 to i1
  %31 = call zeroext i1 @arena_decay_impl(ptr noundef %11, ptr noundef %12, ptr noundef %16, ptr noundef %22, ptr noundef %26, i1 noundef zeroext %28, i1 noundef zeroext %30)
  ret i1 %31
}

; Function Attrs: nounwind uwtable
define hidden void @je_arena_decay(ptr noundef %0, ptr noundef %1, i1 noundef zeroext %2, i1 noundef zeroext %3) #0 {
  %5 = alloca ptr, align 8
  %6 = alloca ptr, align 8
  %7 = alloca i8, align 1
  %8 = alloca i8, align 1
  store ptr %0, ptr %5, align 8, !tbaa !4
  store ptr %1, ptr %6, align 8, !tbaa !9
  %9 = zext i1 %2 to i8
  store i8 %9, ptr %7, align 1, !tbaa !23
  %10 = zext i1 %3 to i8
  store i8 %10, ptr %8, align 1, !tbaa !23
  %11 = load i8, ptr %8, align 1, !tbaa !23, !range !25, !noundef !26
  %12 = trunc i8 %11 to i1
  br i1 %12, label %13, label %18

13:                                               ; preds = %4
  %14 = load ptr, ptr %5, align 8, !tbaa !4
  %15 = load ptr, ptr %6, align 8, !tbaa !9
  %16 = getelementptr inbounds nuw %struct.arena_s, ptr %15, i32 0, i32 10
  %17 = getelementptr inbounds nuw %struct.pa_shard_s, ptr %16, i32 0, i32 5
  call void @je_sec_flush(ptr noundef %14, ptr noundef %17)
  br label %18

18:                                               ; preds = %13, %4
  %19 = load ptr, ptr %5, align 8, !tbaa !4
  %20 = load ptr, ptr %6, align 8, !tbaa !9
  %21 = load i8, ptr %7, align 1, !tbaa !23, !range !25, !noundef !26
  %22 = trunc i8 %21 to i1
  %23 = load i8, ptr %8, align 1, !tbaa !23, !range !25, !noundef !26
  %24 = trunc i8 %23 to i1
  %25 = call zeroext i1 @arena_decay_dirty(ptr noundef %19, ptr noundef %20, i1 noundef zeroext %22, i1 noundef zeroext %24)
  br i1 %25, label %26, label %27

26:                                               ; preds = %18
  br label %35

27:                                               ; preds = %18
  %28 = load ptr, ptr %5, align 8, !tbaa !4
  %29 = load ptr, ptr %6, align 8, !tbaa !9
  %30 = load i8, ptr %7, align 1, !tbaa !23, !range !25, !noundef !26
  %31 = trunc i8 %30 to i1
  %32 = load i8, ptr %8, align 1, !tbaa !23, !range !25, !noundef !26
  %33 = trunc i8 %32 to i1
  %34 = call zeroext i1 @arena_decay_muzzy(ptr noundef %28, ptr noundef %29, i1 noundef zeroext %31, i1 noundef zeroext %33)
  br label %35

35:                                               ; preds = %27, %26
  ret void
}